target datalayout = "e-m:e-p270:32:32-p271:32:32-p272:64:64-i64:64-i128:128-f80:128-n8:16:32:64-S128"
target triple = "x86_64-pc-linux-gnu"

%class.b3LauncherCL = type { ptr, ptr, ptr, i32, [4 x i8], %class.b3AlignedObjectArray, i32, i8, ptr, %class.b3AlignedObjectArray.0 }
%class.b3AlignedObjectArray = type <{ [4 x i8], i32, i32, [4 x i8], ptr, i8, [7 x i8] }>
%class.b3AlignedObjectArray.0 = type <{ [4 x i8], i32, i32, [4 x i8], ptr, i8, [7 x i8] }>

@gDebugLauncherCL = dso_local global i8 0, align 1
@_ZTV12b3LauncherCL = dso_local unnamed_addr constant { [4 x ptr] } { [4 x ptr] [ptr null, ptr @_ZTI12b3LauncherCL, ptr @_ZN12b3LauncherCLD1Ev, ptr @_ZN12b3LauncherCLD0Ev] }, align 8
@_ZZN12b3LauncherCLD1EvE7counter = internal global i32 0, align 4
@.str.1 = private unnamed_addr constant [42 x i8] c"[%d] Finished launching OpenCL kernel %s\0A\00", align 1

; Function Attrs: mustprogress uwtable
define linkonce_odr dso_local void @_ZN18b3AlignedAllocatorI15b3KernelArgDataLj16EE10deallocateEPS0_(ptr noundef nonnull align 1 dereferenceable(1) %0, ptr noundef %1) #0 comdat align 2 {
  %3 = alloca ptr, align 8
  %4 = alloca ptr, align 8
  store ptr %0, ptr %3, align 8, !tbaa !89
  store ptr %1, ptr %4, align 8, !tbaa !56
  %5 = load ptr, ptr %4, align 8, !tbaa !56
  call void @_Z21b3AlignedFreeInternalPv(ptr noundef %5)
  ret void
}

; Function Attrs: inlinehint mustprogress nounwind uwtable
define linkonce_odr dso_local void @_ZN20b3AlignedObjectArrayI15b3KernelArgDataE4initEv(ptr noundef nonnull align 8 dereferenceable(25) %0) #4 comdat align 2 {
  %2 = alloca ptr, align 8
  store ptr %0, ptr %2, align 8, !tbaa !36
  %3 = load ptr, ptr %2, align 8
  %4 = getelementptr inbounds nuw %class.b3AlignedObjectArray, ptr %3, i32 0, i32 5
  store i8 1, ptr %4, align 8, !tbaa !91
  %5 = getelementptr inbounds nuw %class.b3AlignedObjectArray, ptr %3, i32 0, i32 4
  store ptr null, ptr %5, align 8, !tbaa !57
  %6 = getelementptr inbounds nuw %class.b3AlignedObjectArray, ptr %3, i32 0, i32 1
  store i32 0, ptr %6, align 4, !tbaa !58
  %7 = getelementptr inbounds nuw %class.b3AlignedObjectArray, ptr %3, i32 0, i32 2
  store i32 0, ptr %7, align 8, !tbaa !92
  ret void
}

; Function Attrs: inlinehint mustprogress uwtable
define linkonce_odr dso_local void @_ZN20b3AlignedObjectArrayI15b3KernelArgDataE10deallocateEv(ptr noundef nonnull align 8 dereferenceable(25) %0) #6 comdat align 2 {
  %2 = alloca ptr, align 8
  store ptr %0, ptr %2, align 8, !tbaa !36
  %3 = load ptr, ptr %2, align 8
  %4 = getelementptr inbounds nuw %class.b3AlignedObjectArray, ptr %3, i32 0, i32 4
  %5 = load ptr, ptr %4, align 8, !tbaa !57
  %6 = icmp ne ptr %5, null
  br i1 %6, label %7, label %16

7:                                                ; preds = %1
  %8 = getelementptr inbounds nuw %class.b3AlignedObjectArray, ptr %3, i32 0, i32 5
  %9 = load i8, ptr %8, align 8, !tbaa !91, !range !32, !noundef !33
  %10 = trunc i8 %9 to i1
  br i1 %10, label %11, label %14

11:                                               ; preds = %7
  %12 = getelementptr inbounds nuw %class.b3AlignedObjectArray, ptr %3, i32 0, i32 4
  %13 = load ptr, ptr %12, align 8, !tbaa !57
  call void @_ZN18b3AlignedAllocatorI15b3KernelArgDataLj16EE10deallocateEPS0_(ptr noundef nonnull align 1 dereferenceable(1) %3, ptr noundef %13)
  br label %14

14:                                               ; preds = %11, %7
  %15 = getelementptr inbounds nuw %class.b3AlignedObjectArray, ptr %3, i32 0, i32 4
  store ptr null, ptr %15, align 8, !tbaa !57
  br label %16

16:                                               ; preds = %14, %1
  ret void
}

; Function Attrs: inlinehint mustprogress nounwind uwtable
define linkonce_odr dso_local void @_ZN20b3AlignedObjectArrayI15b3KernelArgDataE7destroyEii(ptr noundef nonnull align 8 dereferenceable(25) %0, i32 noundef %1, i32 noundef %2) #4 comdat align 2 {
  %4 = alloca ptr, align 8
  %5 = alloca i32, align 4
  %6 = alloca i32, align 4
  %7 = alloca i32, align 4
  store ptr %0, ptr %4, align 8, !tbaa !36
  store i32 %1, ptr %5, align 4, !tbaa !34
  store i32 %2, ptr %6, align 4, !tbaa !34
  call void @llvm.lifetime.start.p0(i64 4, ptr %7) #10
  %8 = load i32, ptr %5, align 4, !tbaa !34
  store i32 %8, ptr %7, align 4, !tbaa !34
  br label %9

9:                                                ; preds = %14, %3
  %10 = load i32, ptr %7, align 4, !tbaa !34
  %11 = load i32, ptr %6, align 4, !tbaa !34
  %12 = icmp slt i32 %10, %11
  br i1 %12, label %13, label %17

13:                                               ; preds = %9
  br label %14

14:                                               ; preds = %13
  %15 = load i32, ptr %7, align 4, !tbaa !34
  %16 = add nsw i32 %15, 1
  store i32 %16, ptr %7, align 4, !tbaa !34
  br label %9, !llvm.loop !97

17:                                               ; preds = %9
  call void @llvm.lifetime.end.p0(i64 4, ptr %7) #10
  ret void
}

; Function Attrs: inlinehint mustprogress nounwind uwtable
define linkonce_odr dso_local noundef i32 @_ZNK20b3AlignedObjectArrayI15b3KernelArgDataE4sizeEv(ptr noundef nonnull align 8 dereferenceable(25) %0) #4 comdat align 2 {
  %2 = alloca ptr, align 8
  store ptr %0, ptr %2, align 8, !tbaa !36
  %3 = load ptr, ptr %2, align 8
  %4 = getelementptr inbounds nuw %class.b3AlignedObjectArray, ptr %3, i32 0, i32 1
  %5 = load i32, ptr %4, align 4, !tbaa !58
  ret i32 %5
}

; Function Attrs: mustprogress uwtable
define linkonce_odr dso_local void @_ZN18b3AlignedAllocatorIP13b3OpenCLArrayIhELj16EE10deallocateEPS2_(ptr noundef nonnull align 1 dereferenceable(1) %0, ptr noundef %1) #0 comdat align 2 {
  %3 = alloca ptr, align 8
  %4 = alloca ptr, align 8
  store ptr %0, ptr %3, align 8, !tbaa !93
  store ptr %1, ptr %4, align 8, !tbaa !81
  %5 = load ptr, ptr %4, align 8, !tbaa !81
  call void @_Z21b3AlignedFreeInternalPv(ptr noundef %5)
  ret void
}

; Function Attrs: inlinehint mustprogress uwtable
define linkonce_odr dso_local void @_ZN20b3AlignedObjectArrayI15b3KernelArgDataE5clearEv(ptr noundef nonnull align 8 dereferenceable(25) %0) #6 comdat align 2 {
  %2 = alloca ptr, align 8
  store ptr %0, ptr %2, align 8, !tbaa !36
  %3 = load ptr, ptr %2, align 8
  %4 = call noundef i32 @_ZNK20b3AlignedObjectArrayI15b3KernelArgDataE4sizeEv(ptr noundef nonnull align 8 dereferenceable(25) %3)
  call void @_ZN20b3AlignedObjectArrayI15b3KernelArgDataE7destroyEii(ptr noundef nonnull align 8 dereferenceable(25) %3, i32 noundef 0, i32 noundef %4)
  call void @_ZN20b3AlignedObjectArrayI15b3KernelArgDataE10deallocateEv(ptr noundef nonnull align 8 dereferenceable(25) %3)
  call void @_ZN20b3AlignedObjectArrayI15b3KernelArgDataE4initEv(ptr noundef nonnull align 8 dereferenceable(25) %3)
  ret void
}

; Function Attrs: inlinehint mustprogress nounwind uwtable
define linkonce_odr dso_local void @_ZN20b3AlignedObjectArrayIP13b3OpenCLArrayIhEE4initEv(ptr noundef nonnull align 8 dereferenceable(25) %0) #4 comdat align 2 {
  %2 = alloca ptr, align 8
  store ptr %0, ptr %2, align 8, !tbaa !38
  %3 = load ptr, ptr %2, align 8
  %4 = getelementptr inbounds nuw %class.b3AlignedObjectArray.0, ptr %3, i32 0, i32 5
  store i8 1, ptr %4, align 8, !tbaa !95
  %5 = getelementptr inbounds nuw %class.b3AlignedObjectArray.0, ptr %3, i32 0, i32 4
  store ptr null, ptr %5, align 8, !tbaa !45
  %6 = getelementptr inbounds nuw %class.b3AlignedObjectArray.0, ptr %3, i32 0, i32 1
  store i32 0, ptr %6, align 4, !tbaa !44
  %7 = getelementptr inbounds nuw %class.b3AlignedObjectArray.0, ptr %3, i32 0, i32 2
  store i32 0, ptr %7, align 8, !tbaa !96
  ret void
}

; Function Attrs: inlinehint mustprogress uwtable
define linkonce_odr dso_local void @_ZN20b3AlignedObjectArrayIP13b3OpenCLArrayIhEE10deallocateEv(ptr noundef nonnull align 8 dereferenceable(25) %0) #6 comdat align 2 {
  %2 = alloca ptr, align 8
  store ptr %0, ptr %2, align 8, !tbaa !38
  %3 = load ptr, ptr %2, align 8
  %4 = getelementptr inbounds nuw %class.b3AlignedObjectArray.0, ptr %3, i32 0, i32 4
  %5 = load ptr, ptr %4, align 8, !tbaa !45
  %6 = icmp ne ptr %5, null
  br i1 %6, label %7, label %16

7:                                                ; preds = %1
  %8 = getelementptr inbounds nuw %class.b3AlignedObjectArray.0, ptr %3, i32 0, i32 5
  %9 = load i8, ptr %8, align 8, !tbaa !95, !range !32, !noundef !33
  %10 = trunc i8 %9 to i1
  br i1 %10, label %11, label %14

11:                                               ; preds = %7
  %12 = getelementptr inbounds nuw %class.b3AlignedObjectArray.0, ptr %3, i32 0, i32 4
  %13 = load ptr, ptr %12, align 8, !tbaa !45
  call void @_ZN18b3AlignedAllocatorIP13b3OpenCLArrayIhELj16EE10deallocateEPS2_(ptr noundef nonnull align 1 dereferenceable(1) %3, ptr noundef %13)
  br label %14

14:                                               ; preds = %11, %7
  %15 = getelementptr inbounds nuw %class.b3AlignedObjectArray.0, ptr %3, i32 0, i32 4
  store ptr null, ptr %15, align 8, !tbaa !45
  br label %16

16:                                               ; preds = %14, %1
  ret void
}

; Function Attrs: inlinehint mustprogress nounwind uwtable
define linkonce_odr dso_local void @_ZN20b3AlignedObjectArrayIP13b3OpenCLArrayIhEE7destroyEii(ptr noundef nonnull align 8 dereferenceable(25) %0, i32 noundef %1, i32 noundef %2) #4 comdat align 2 {
  %4 = alloca ptr, align 8
  %5 = alloca i32, align 4
  %6 = alloca i32, align 4
  %7 = alloca i32, align 4
  store ptr %0, ptr %4, align 8, !tbaa !38
  store i32 %1, ptr %5, align 4, !tbaa !34
  store i32 %2, ptr %6, align 4, !tbaa !34
  call void @llvm.lifetime.start.p0(i64 4, ptr %7) #10
  %8 = load i32, ptr %5, align 4, !tbaa !34
  store i32 %8, ptr %7, align 4, !tbaa !34
  br label %9

9:                                                ; preds = %14, %3
  %10 = load i32, ptr %7, align 4, !tbaa !34
  %11 = load i32, ptr %6, align 4, !tbaa !34
  %12 = icmp slt i32 %10, %11
  br i1 %12, label %13, label %17

13:                                               ; preds = %9
  br label %14

14:                                               ; preds = %13
  %15 = load i32, ptr %7, align 4, !tbaa !34
  %16 = add nsw i32 %15, 1
  store i32 %16, ptr %7, align 4, !tbaa !34
  br label %9, !llvm.loop !98

17:                                               ; preds = %9
  call void @llvm.lifetime.end.p0(i64 4, ptr %7) #10
  ret void
}

; Function Attrs: mustprogress nounwind uwtable
define linkonce_odr dso_local void @_ZN20b3AlignedObjectArrayI15b3KernelArgDataED2Ev(ptr noundef nonnull align 8 dereferenceable(25) %0) unnamed_addr #2 comdat align 2 personality ptr @__gxx_personality_v0 {
  %2 = alloca ptr, align 8
  store ptr %0, ptr %2, align 8, !tbaa !36
  %3 = load ptr, ptr %2, align 8
  invoke void @_ZN20b3AlignedObjectArrayI15b3KernelArgDataE5clearEv(ptr noundef nonnull align 8 dereferenceable(25) %3)
          to label %4 unwind label %5

4:                                                ; preds = %1
  ret void

5:                                                ; preds = %1
  %6 = landingpad { ptr, i32 }
          catch ptr null
  %7 = extractvalue { ptr, i32 } %6, 0
  call void @__clang_call_terminate(ptr %7) #11
  unreachable
}

; Function Attrs: mustprogress nounwind uwtable
define linkonce_odr dso_local void @_ZN20b3AlignedObjectArrayIP13b3OpenCLArrayIhEED2Ev(ptr noundef nonnull align 8 dereferenceable(25) %0) unnamed_addr #2 comdat align 2 personality ptr @__gxx_personality_v0 {
  %2 = alloca ptr, align 8
  store ptr %0, ptr %2, align 8, !tbaa !38
  %3 = load ptr, ptr %2, align 8
  invoke void @_ZN20b3AlignedObjectArrayIP13b3OpenCLArrayIhEE5clearEv(ptr noundef nonnull align 8 dereferenceable(25) %3)
          to label %4 unwind label %5

4:                                                ; preds = %1
  ret void

5:                                                ; preds = %1
  %6 = landingpad { ptr, i32 }
          catch ptr null
  %7 = extractvalue { ptr, i32 } %6, 0
  call void @__clang_call_terminate(ptr %7) #11
  unreachable
}

; Function Attrs: inlinehint mustprogress uwtable
define linkonce_odr dso_local void @_ZN20b3AlignedObjectArrayIP13b3OpenCLArrayIhEE5clearEv(ptr noundef nonnull align 8 dereferenceable(25) %0) #6 comdat align 2 {
  %2 = alloca ptr, align 8
  store ptr %0, ptr %2, align 8, !tbaa !38
  %3 = load ptr, ptr %2, align 8
  %4 = call noundef i32 @_ZNK20b3AlignedObjectArrayIP13b3OpenCLArrayIhEE4sizeEv(ptr noundef nonnull align 8 dereferenceable(25) %3)
  call void @_ZN20b3AlignedObjectArrayIP13b3OpenCLArrayIhEE7destroyEii(ptr noundef nonnull align 8 dereferenceable(25) %3, i32 noundef 0, i32 noundef %4)
  call void @_ZN20b3AlignedObjectArrayIP13b3OpenCLArrayIhEE10deallocateEv(ptr noundef nonnull align 8 dereferenceable(25) %3)
  call void @_ZN20b3AlignedObjectArrayIP13b3OpenCLArrayIhEE4initEv(ptr noundef nonnull align 8 dereferenceable(25) %3)
  ret void
}

; Function Attrs: inlinehint mustprogress nounwind uwtable
define linkonce_odr dso_local noundef nonnull align 8 dereferenceable(8) ptr @_ZN20b3AlignedObjectArrayIP13b3OpenCLArrayIhEEixEi(ptr noundef nonnull align 8 dereferenceable(25) %0, i32 noundef %1) #4 comdat align 2 {
  %3 = alloca ptr, align 8
  %4 = alloca i32, align 4
  store ptr %0, ptr %3, align 8, !tbaa !38
  store i32 %1, ptr %4, align 4, !tbaa !34
  %5 = load ptr, ptr %3, align 8
  %6 = getelementptr inbounds nuw %class.b3AlignedObjectArray.0, ptr %5, i32 0, i32 4
  %7 = load ptr, ptr %6, align 8, !tbaa !45
  %8 = load i32, ptr %4, align 4, !tbaa !34
  %9 = sext i32 %8 to i64
  %10 = getelementptr inbounds ptr, ptr %7, i64 %9
  ret ptr %10
}

; Function Attrs: inlinehint mustprogress nounwind uwtable
define linkonce_odr dso_local noundef i32 @_ZNK20b3AlignedObjectArrayIP13b3OpenCLArrayIhEE4sizeEv(ptr noundef nonnull align 8 dereferenceable(25) %0) #4 comdat align 2 {
  %2 = alloca ptr, align 8
  store ptr %0, ptr %2, align 8, !tbaa !38
  %3 = load ptr, ptr %2, align 8
  %4 = getelementptr inbounds nuw %class.b3AlignedObjectArray.0, ptr %3, i32 0, i32 1
  %5 = load i32, ptr %4, align 4, !tbaa !44
  ret i32 %5
}

; Function Attrs: mustprogress nounwind uwtable
define dso_local void @_ZN12b3LauncherCLD2Ev(ptr noundef nonnull align 8 dereferenceable(112) %0) unnamed_addr #2 align 2 personality ptr @__gxx_personality_v0 {
  %2 = alloca ptr, align 8
  %3 = alloca i32, align 4
  store ptr %0, ptr %2, align 8, !tbaa !4
  %4 = load ptr, ptr %2, align 8
  store ptr getelementptr inbounds inrange(-16, 16) ({ [4 x ptr] }, ptr @_ZTV12b3LauncherCL, i32 0, i32 0, i32 2), ptr %4, align 8, !tbaa !15
  call void @llvm.lifetime.start.p0(i64 4, ptr %3) #10
  store i32 0, ptr %3, align 4, !tbaa !34
  br label %5

5:                                                ; preds = %24, %1
  %6 = load i32, ptr %3, align 4, !tbaa !34
  %7 = getelementptr inbounds nuw %class.b3LauncherCL, ptr %4, i32 0, i32 9
  %8 = invoke noundef i32 @_ZNK20b3AlignedObjectArrayIP13b3OpenCLArrayIhEE4sizeEv(ptr noundef nonnull align 8 dereferenceable(25) %7)
          to label %9 unwind label %42

9:                                                ; preds = %5
  %10 = icmp slt i32 %6, %8
  br i1 %10, label %12, label %11

11:                                               ; preds = %9
  call void @llvm.lifetime.end.p0(i64 4, ptr %3) #10
  br label %27

12:                                               ; preds = %9
  %13 = getelementptr inbounds nuw %class.b3LauncherCL, ptr %4, i32 0, i32 9
  %14 = load i32, ptr %3, align 4, !tbaa !34
  %15 = invoke noundef nonnull align 8 dereferenceable(8) ptr @_ZN20b3AlignedObjectArrayIP13b3OpenCLArrayIhEEixEi(ptr noundef nonnull align 8 dereferenceable(25) %13, i32 noundef %14)
          to label %16 unwind label %42

16:                                               ; preds = %12
  %17 = load ptr, ptr %15, align 8, !tbaa !40
  %18 = icmp eq ptr %17, null
  br i1 %18, label %23, label %19

19:                                               ; preds = %16
  %20 = load ptr, ptr %17, align 8, !tbaa !15
  %21 = getelementptr inbounds ptr, ptr %20, i64 1
  %22 = load ptr, ptr %21, align 8
  call void %22(ptr noundef nonnull align 8 dereferenceable(50) %17) #10
  br label %23

23:                                               ; preds = %19, %16
  br label %24

24:                                               ; preds = %23
  %25 = load i32, ptr %3, align 4, !tbaa !34
  %26 = add nsw i32 %25, 1
  store i32 %26, ptr %3, align 4, !tbaa !34
  br label %5, !llvm.loop !42

27:                                               ; preds = %11
  %28 = getelementptr inbounds nuw %class.b3LauncherCL, ptr %4, i32 0, i32 9
  invoke void @_ZN20b3AlignedObjectArrayIP13b3OpenCLArrayIhEE5clearEv(ptr noundef nonnull align 8 dereferenceable(25) %28)
          to label %29 unwind label %42

29:                                               ; preds = %27
  %30 = load i8, ptr @gDebugLauncherCL, align 1, !tbaa !31, !range !32, !noundef !33
  %31 = trunc i8 %30 to i1
  br i1 %31, label %32, label %39

32:                                               ; preds = %29
  %33 = load i32, ptr @_ZZN12b3LauncherCLD1EvE7counter, align 4, !tbaa !34
  %34 = add nsw i32 %33, 1
  store i32 %34, ptr @_ZZN12b3LauncherCLD1EvE7counter, align 4, !tbaa !34
  %35 = getelementptr inbounds nuw %class.b3LauncherCL, ptr %4, i32 0, i32 8
  %36 = load ptr, ptr %35, align 8, !tbaa !30
  %37 = invoke i32 (ptr, ...) @printf(ptr noundef @.str.1, i32 noundef %33, ptr noundef %36)
          to label %38 unwind label %42

38:                                               ; preds = %32
  br label %39

39:                                               ; preds = %38, %29
  %40 = getelementptr inbounds nuw %class.b3LauncherCL, ptr %4, i32 0, i32 9
  call void @_ZN20b3AlignedObjectArrayIP13b3OpenCLArrayIhEED2Ev(ptr noundef nonnull align 8 dereferenceable(25) %40) #10
  %41 = getelementptr inbounds nuw %class.b3LauncherCL, ptr %4, i32 0, i32 5
  call void @_ZN20b3AlignedObjectArrayI15b3KernelArgDataED2Ev(ptr noundef nonnull align 8 dereferenceable(25) %41) #10
  ret void

42:                                               ; preds = %32, %27, %12, %5
  %43 = landingpad { ptr, i32 }
          catch ptr null
  %44 = extractvalue { ptr, i32 } %43, 0
  call void @__clang_call_terminate(ptr %44) #11
  unreachable
}