; Function Attrs: mustprogress nounwind uwtable
define dso_local void @_ZN12b3LauncherCLD2Ev(ptr noundef nonnull align 8 captures(none) dereferenceable(112) initializes((0, 8)) %0) unnamed_addr #2 align 2 personality ptr @__gxx_personality_v0 {
  store ptr getelementptr inbounds nuw inrange(-16, 16) (i8, ptr @_ZTV12b3LauncherCL, i64 16), ptr %0, align 8, !tbaa !4
  %2 = getelementptr inbounds nuw i8, ptr %0, i64 84
  %3 = load i32, ptr %2, align 4, !tbaa !32
  %4 = icmp sgt i32 %3, 0
  br i1 %4, label %.lr.ph, label %._crit_edge

.lr.ph:                                           ; preds = %1
  %5 = getelementptr inbounds nuw i8, ptr %0, i64 96
  br label %13

._crit_edge:                                      ; preds = %23, %1
  %6 = getelementptr inbounds nuw i8, ptr %0, i64 96
  %7 = load ptr, ptr %6, align 8, !tbaa !31
  %.not.i.i = icmp eq ptr %7, null
  br i1 %.not.i.i, label %27, label %8

8:                                                ; preds = %._crit_edge
  %9 = getelementptr inbounds nuw i8, ptr %0, i64 104
  %10 = load i8, ptr %9, align 8, !tbaa !30, !range !35, !noundef !36
  %11 = trunc nuw i8 %10 to i1
  br i1 %11, label %12, label %27

12:                                               ; preds = %8
  invoke void @_Z21b3AlignedFreeInternalPv(ptr noundef nonnull %7)
          to label %27 unwind label %58

13:                                               ; preds = %.lr.ph, %23
  %14 = phi i32 [ %3, %.lr.ph ], [ %24, %23 ]
  %indvars.iv = phi i64 [ 0, %.lr.ph ], [ %indvars.iv.next, %23 ]
  %15 = load ptr, ptr %5, align 8, !tbaa !31
  %16 = getelementptr inbounds nuw ptr, ptr %15, i64 %indvars.iv
  %17 = load ptr, ptr %16, align 8, !tbaa !39
  %18 = icmp eq ptr %17, null
  br i1 %18, label %23, label %19

19:                                               ; preds = %13
  %20 = load ptr, ptr %17, align 8, !tbaa !4
  %21 = getelementptr inbounds nuw i8, ptr %20, i64 8
  %22 = load ptr, ptr %21, align 8
  tail call void %22(ptr noundef nonnull align 8 dereferenceable(50) %17) #13
  %.pre = load i32, ptr %2, align 4, !tbaa !32
  br label %23

23:                                               ; preds = %13, %19
  %24 = phi i32 [ %14, %13 ], [ %.pre, %19 ]
  %indvars.iv.next = add nuw nsw i64 %indvars.iv, 1
  %25 = sext i32 %24 to i64
  %26 = icmp slt i64 %indvars.iv.next, %25
  br i1 %26, label %13, label %._crit_edge, !llvm.loop !41

27:                                               ; preds = %8, %._crit_edge, %12
  %28 = getelementptr inbounds nuw i8, ptr %0, i64 104
  store i8 1, ptr %28, align 8, !tbaa !30
  store ptr null, ptr %6, align 8, !tbaa !31
  store i32 0, ptr %2, align 4, !tbaa !32
  %29 = getelementptr inbounds nuw i8, ptr %0, i64 88
  store i32 0, ptr %29, align 8, !tbaa !33
  %30 = load i8, ptr @gDebugLauncherCL, align 1, !tbaa !34, !range !35, !noundef !36
  %31 = trunc nuw i8 %30 to i1
  br i1 %31, label %32, label %_ZN20b3AlignedObjectArrayIP13b3OpenCLArrayIhEED2Ev.exit

32:                                               ; preds = %27
  %33 = load i32, ptr @_ZZN12b3LauncherCLD1EvE7counter, align 4, !tbaa !37
  %34 = add nsw i32 %33, 1
  store i32 %34, ptr @_ZZN12b3LauncherCLD1EvE7counter, align 4, !tbaa !37
  %35 = getelementptr inbounds nuw i8, ptr %0, i64 72
  %36 = load ptr, ptr %35, align 8, !tbaa !29
  %37 = tail call i32 (ptr, ...) @printf(ptr noundef nonnull dereferenceable(1) @.str.1, i32 noundef %33, ptr noundef %36)
  %.pre7 = load ptr, ptr %6, align 8, !tbaa !31
  %.not.i.i.i = icmp eq ptr %.pre7, null
  br i1 %.not.i.i.i, label %_ZN20b3AlignedObjectArrayIP13b3OpenCLArrayIhEED2Ev.exit, label %38

38:                                               ; preds = %32
  %39 = load i8, ptr %28, align 8, !tbaa !30, !range !35, !noundef !36
  %40 = trunc nuw i8 %39 to i1
  br i1 %40, label %41, label %_ZN20b3AlignedObjectArrayIP13b3OpenCLArrayIhEED2Ev.exit

41:                                               ; preds = %38
  invoke void @_Z21b3AlignedFreeInternalPv(ptr noundef nonnull %.pre7)
          to label %_ZN20b3AlignedObjectArrayIP13b3OpenCLArrayIhEED2Ev.exit unwind label %42

42:                                               ; preds = %41
  %43 = landingpad { ptr, i32 }
          catch ptr null
  %44 = extractvalue { ptr, i32 } %43, 0
  tail call void @__clang_call_terminate(ptr %44) #14
  unreachable

_ZN20b3AlignedObjectArrayIP13b3OpenCLArrayIhEED2Ev.exit: ; preds = %27, %32, %38, %41
  store i8 1, ptr %28, align 8, !tbaa !30
  store ptr null, ptr %6, align 8, !tbaa !31
  store i32 0, ptr %2, align 4, !tbaa !32
  store i32 0, ptr %29, align 8, !tbaa !33
  %45 = getelementptr inbounds nuw i8, ptr %0, i64 48
  %46 = load ptr, ptr %45, align 8, !tbaa !25
  %.not.i.i.i4 = icmp eq ptr %46, null
  br i1 %.not.i.i.i4, label %_ZN20b3AlignedObjectArrayI15b3KernelArgDataED2Ev.exit, label %47

47:                                               ; preds = %_ZN20b3AlignedObjectArrayIP13b3OpenCLArrayIhEED2Ev.exit
  %48 = getelementptr inbounds nuw i8, ptr %0, i64 56
  %49 = load i8, ptr %48, align 8, !tbaa !24, !range !35, !noundef !36
  %50 = trunc nuw i8 %49 to i1
  br i1 %50, label %51, label %_ZN20b3AlignedObjectArrayI15b3KernelArgDataED2Ev.exit

51:                                               ; preds = %47
  invoke void @_Z21b3AlignedFreeInternalPv(ptr noundef nonnull %46)
          to label %_ZN20b3AlignedObjectArrayI15b3KernelArgDataED2Ev.exit unwind label %52

52:                                               ; preds = %51
  %53 = landingpad { ptr, i32 }
          catch ptr null
  %54 = extractvalue { ptr, i32 } %53, 0
  tail call void @__clang_call_terminate(ptr %54) #14
  unreachable

_ZN20b3AlignedObjectArrayI15b3KernelArgDataED2Ev.exit: ; preds = %_ZN20b3AlignedObjectArrayIP13b3OpenCLArrayIhEED2Ev.exit, %47, %51
  %55 = getelementptr inbounds nuw i8, ptr %0, i64 36
  %56 = getelementptr inbounds nuw i8, ptr %0, i64 56
  store i8 1, ptr %56, align 8, !tbaa !24
  store ptr null, ptr %45, align 8, !tbaa !25
  store i32 0, ptr %55, align 4, !tbaa !26
  %57 = getelementptr inbounds nuw i8, ptr %0, i64 40
  store i32 0, ptr %57, align 8, !tbaa !27
  ret void

58:                                               ; preds = %12
  %59 = landingpad { ptr, i32 }
          catch ptr null
  %60 = extractvalue { ptr, i32 } %59, 0
  tail call void @__clang_call_terminate(ptr %60) #14
  unreachable
}